; Function Attrs: mustprogress uwtable
define noundef nonnull ptr @IpoptApplicationFactory() local_unnamed_addr #3 personality ptr @__gxx_personality_v0 {
  %1 = tail call noalias noundef nonnull dereferenceable(96) ptr @_Znwm(i64 noundef 96) #21
  invoke void @_ZN5Ipopt16IpoptApplicationC1Ebb(ptr noundef nonnull align 8 dereferenceable(90) %1, i1 noundef zeroext true, i1 noundef zeroext false)
          to label %2 unwind label %3

2:                                                ; preds = %0
  ret ptr %1

3:                                                ; preds = %0
  %4 = landingpad { ptr, i32 }
          cleanup
  tail call void @_ZdlPvm(ptr noundef nonnull %1, i64 noundef 96) #22
  resume { ptr, i32 } %4
}